; ModuleID = 'source-C-CXX/56/626.c'
source_filename = "source-C-CXX/56/626.c"
target datalayout = "e-m:e-p270:32:32-p271:32:32-p272:64:64-i64:64-f80:128-n8:16:32:64-S128"
target triple = "x86_64-pc-linux-gnu"

@.str = private unnamed_addr constant [3 x i8] c"%d\00", align 1
@.str.1 = private unnamed_addr constant [3 x i8] c"%s\00", align 1

; Function Attrs: nofree nounwind sspstrong uwtable
define dso_local i32 @main() local_unnamed_addr #0 {
  %1 = alloca i32, align 4
  %2 = alloca [53 x [35 x i8]], align 16
  %3 = alloca [53 x [35 x i8]], align 16
  %4 = bitcast i32* %1 to i8*
  call void @llvm.lifetime.start.p0i8(i64 4, i8* nonnull %4) #5
  %5 = getelementptr inbounds [53 x [35 x i8]], [53 x [35 x i8]]* %2, i64 0, i64 0, i64 0
  call void @llvm.lifetime.start.p0i8(i64 1855, i8* nonnull %5) #5
  %6 = getelementptr inbounds [53 x [35 x i8]], [53 x [35 x i8]]* %3, i64 0, i64 0, i64 0
  call void @llvm.lifetime.start.p0i8(i64 1855, i8* nonnull %6) #5
  %7 = call i32 (i8*, ...) @__isoc99_scanf(i8* getelementptr inbounds ([3 x i8], [3 x i8]* @.str, i64 0, i64 0), i32* nonnull %1)
  %8 = load i32, i32* %1, align 4, !tbaa !5
  %9 = icmp sgt i32 %8, 0
  br i1 %9, label %12, label %45

10:                                               ; preds = %32
  %11 = icmp sgt i32 %34, 0
  br i1 %11, label %37, label %45

12:                                               ; preds = %0, %32
  %13 = phi i64 [ %33, %32 ], [ 0, %0 ]
  %14 = getelementptr [53 x [35 x i8]], [53 x [35 x i8]]* %3, i64 0, i64 %13, i64 0
  %15 = getelementptr [53 x [35 x i8]], [53 x [35 x i8]]* %2, i64 0, i64 %13, i64 0
  %16 = call i32 (i8*, ...) @__isoc99_scanf(i8* getelementptr inbounds ([3 x i8], [3 x i8]* @.str.1, i64 0, i64 0), i8* nonnull %15)
  %17 = call i64 @strlen(i8* noundef nonnull %15) #6
  %18 = add i64 %17, -1
  %19 = getelementptr inbounds [53 x [35 x i8]], [53 x [35 x i8]]* %2, i64 0, i64 %13, i64 %18
  %20 = load i8, i8* %19, align 1, !tbaa !9
  switch i8 %20, label %32 [
    i8 114, label %27
    i8 121, label %24
    i8 103, label %21
  ]

21:                                               ; preds = %12
  %22 = add i64 %17, -3
  %23 = icmp eq i64 %22, 0
  br i1 %23, label %32, label %30

24:                                               ; preds = %12
  %25 = add i64 %17, -2
  %26 = icmp eq i64 %25, 0
  br i1 %26, label %32, label %30

27:                                               ; preds = %12
  %28 = add i64 %17, -2
  %29 = icmp eq i64 %28, 0
  br i1 %29, label %32, label %30

30:                                               ; preds = %27, %24, %21
  %31 = phi i64 [ %22, %21 ], [ %25, %24 ], [ %28, %27 ]
  call void @llvm.memcpy.p0i8.p0i8.i64(i8* align 1 %14, i8* align 1 %15, i64 %31, i1 false)
  br label %32

32:                                               ; preds = %30, %21, %24, %27, %12
  %33 = add nuw nsw i64 %13, 1
  %34 = load i32, i32* %1, align 4, !tbaa !5
  %35 = sext i32 %34 to i64
  %36 = icmp slt i64 %33, %35
  br i1 %36, label %12, label %10, !llvm.loop !10

37:                                               ; preds = %10, %37
  %38 = phi i64 [ %41, %37 ], [ 0, %10 ]
  %39 = getelementptr inbounds [53 x [35 x i8]], [53 x [35 x i8]]* %3, i64 0, i64 %38, i64 0
  %40 = call i32 @puts(i8* nonnull %39)
  %41 = add nuw nsw i64 %38, 1
  %42 = load i32, i32* %1, align 4, !tbaa !5
  %43 = sext i32 %42 to i64
  %44 = icmp slt i64 %41, %43
  br i1 %44, label %37, label %45, !llvm.loop !12

45:                                               ; preds = %37, %0, %10
  call void @llvm.lifetime.end.p0i8(i64 1855, i8* nonnull %6) #5
  call void @llvm.lifetime.end.p0i8(i64 1855, i8* nonnull %5) #5
  call void @llvm.lifetime.end.p0i8(i64 4, i8* nonnull %4) #5
  ret i32 0
}

; Function Attrs: argmemonly mustprogress nofree nosync nounwind willreturn
declare void @llvm.lifetime.start.p0i8(i64 immarg, i8* nocapture) #1

; Function Attrs: nofree nounwind
declare noundef i32 @__isoc99_scanf(i8* nocapture noundef readonly, ...) local_unnamed_addr #2

; Function Attrs: argmemonly mustprogress nofree nounwind readonly willreturn
declare i64 @strlen(i8* nocapture) local_unnamed_addr #3

; Function Attrs: nofree nounwind
declare noundef i32 @puts(i8* nocapture noundef readonly) local_unnamed_addr #2

; Function Attrs: argmemonly mustprogress nofree nosync nounwind willreturn
declare void @llvm.lifetime.end.p0i8(i64 immarg, i8* nocapture) #1

; Function Attrs: argmemonly nofree nounwind willreturn
declare void @llvm.memcpy.p0i8.p0i8.i64(i8* noalias nocapture writeonly, i8* noalias nocapture readonly, i64, i1 immarg) #4


!llvm.module.flags = !{!0, !1, !2, !3}
!llvm.ident = !{!4}

!0 = !{i32 1, !"wchar_size", i32 4}
!1 = !{i32 7, !"PIC Level", i32 2}
!2 = !{i32 7, !"PIE Level", i32 2}
!3 = !{i32 7, !"uwtable", i32 1}
!4 = !{!"clang version 13.0.0"}
!5 = !{!6, !6, i64 0}
!6 = !{!"int", !7, i64 0}
!7 = !{!"omnipotent char", !8, i64 0}
!8 = !{!"Simple C/C++ TBAA"}
!9 = !{!7, !7, i64 0}
!10 = distinct !{!10, !11}
!11 = !{!"llvm.loop.mustprogress"}
!12 = distinct !{!12, !11}
